; Function Attrs: nounwind uwtable
define hidden range(i32 -1, 1) i32 @_PySys_SetFlagObj(i64 noundef %0, ptr noundef %1) local_unnamed_addr #0 {
  %3 = tail call ptr @PySys_GetObject(ptr noundef nonnull @.str.13)
  %.not.i.i = icmp eq ptr %3, null
  br i1 %.not.i.i, label %_Py_XNewRef.exit, label %4

4:                                                ; preds = %2
  %5 = load i32, ptr %3, align 8, !tbaa !94
  %6 = icmp slt i32 %5, 0
  br i1 %6, label %12, label %7

7:                                                ; preds = %4
  %8 = add nuw i32 %5, 1
  store i32 %8, ptr %3, align 8, !tbaa !94
  br label %12

_Py_XNewRef.exit:                                 ; preds = %2
  %9 = tail call ptr @PyErr_Occurred() #15
  %.not = icmp eq ptr %9, null
  br i1 %.not, label %10, label %Py_DECREF.exit

10:                                               ; preds = %_Py_XNewRef.exit
  %11 = load ptr, ptr @PyExc_RuntimeError, align 8, !tbaa !93
  tail call void @PyErr_SetString(ptr noundef %11, ptr noundef nonnull @.str.14) #15
  br label %Py_DECREF.exit

12:                                               ; preds = %4, %7
  %13 = tail call ptr @PyStructSequence_GetItem(ptr noundef nonnull %3, i64 noundef %0) #15
  %14 = load i32, ptr %1, align 8, !tbaa !94
  %15 = icmp slt i32 %14, 0
  br i1 %15, label %_Py_NewRef.exit.i, label %16

16:                                               ; preds = %12
  %17 = add nuw i32 %14, 1
  store i32 %17, ptr %1, align 8, !tbaa !94
  br label %_Py_NewRef.exit.i

_Py_NewRef.exit.i:                                ; preds = %16, %12
  tail call void @PyStructSequence_SetItem(ptr noundef nonnull %3, i64 noundef %0, ptr noundef nonnull %1) #15
  %.not.i.i6 = icmp eq ptr %13, null
  br i1 %.not.i.i6, label %sys_set_flag.exit, label %18

18:                                               ; preds = %_Py_NewRef.exit.i
  %19 = load i32, ptr %13, align 8, !tbaa !94
  %.not.i.i.i = icmp sgt i32 %19, -1
  br i1 %.not.i.i.i, label %20, label %sys_set_flag.exit

20:                                               ; preds = %18
  %21 = add nsw i32 %19, -1
  store i32 %21, ptr %13, align 8, !tbaa !94
  %22 = icmp eq i32 %21, 0
  br i1 %22, label %23, label %sys_set_flag.exit

23:                                               ; preds = %20
  tail call void @_Py_Dealloc(ptr noundef nonnull %13) #15
  br label %sys_set_flag.exit

sys_set_flag.exit:                                ; preds = %_Py_NewRef.exit.i, %18, %20, %23
  %24 = load i32, ptr %3, align 8, !tbaa !94
  %.not.i = icmp sgt i32 %24, -1
  br i1 %.not.i, label %25, label %Py_DECREF.exit

25:                                               ; preds = %sys_set_flag.exit
  %26 = add nsw i32 %24, -1
  store i32 %26, ptr %3, align 8, !tbaa !94
  %27 = icmp eq i32 %26, 0
  br i1 %27, label %28, label %Py_DECREF.exit

28:                                               ; preds = %25
  tail call void @_Py_Dealloc(ptr noundef nonnull %3) #15
  br label %Py_DECREF.exit

Py_DECREF.exit:                                   ; preds = %28, %25, %sys_set_flag.exit, %_Py_XNewRef.exit, %10
  %.0 = phi i32 [ -1, %10 ], [ -1, %_Py_XNewRef.exit ], [ 0, %sys_set_flag.exit ], [ 0, %25 ], [ 0, %28 ]
  ret i32 %.0
}